; Function Attrs: nounwind uwtable
define ptr @Aig_CreateAnd(ptr noundef %0, i32 noundef %1) local_unnamed_addr #0 {
  %3 = getelementptr i8, ptr %0, i64 48
  %.val = load ptr, ptr %3, align 8, !tbaa !27
  %4 = icmp sgt i32 %1, 0
  br i1 %4, label %.lr.ph, label %._crit_edge

.lr.ph:                                           ; preds = %2
  %5 = getelementptr i8, ptr %0, i64 136
  %6 = getelementptr i8, ptr %0, i64 16
  %wide.trip.count = zext nneg i32 %1 to i64
  br label %7

7:                                                ; preds = %.lr.ph, %Aig_IthVar.exit
  %indvars.iv = phi i64 [ 0, %.lr.ph ], [ %indvars.iv.next, %Aig_IthVar.exit ]
  %.089 = phi ptr [ %.val, %.lr.ph ], [ %15, %Aig_IthVar.exit ]
  %.val.i = load i32, ptr %5, align 8, !tbaa !3
  %8 = sext i32 %.val.i to i64
  %.not8.i = icmp slt i64 %indvars.iv, %8
  br i1 %.not8.i, label %Aig_IthVar.exit, label %.lr.ph.i

.lr.ph.i:                                         ; preds = %7, %.lr.ph.i
  %.09.i = phi i32 [ %10, %.lr.ph.i ], [ %.val.i, %7 ]
  %9 = tail call ptr @Aig_ObjCreateCi(ptr noundef %0) #7
  %10 = add i32 %.09.i, 1
  %11 = zext i32 %.09.i to i64
  %exitcond.not.i = icmp eq i64 %indvars.iv, %11
  br i1 %exitcond.not.i, label %Aig_IthVar.exit, label %.lr.ph.i, !llvm.loop !7

Aig_IthVar.exit:                                  ; preds = %.lr.ph.i, %7
  %.val7.i = load ptr, ptr %6, align 8, !tbaa !9
  %12 = getelementptr i8, ptr %.val7.i, i64 8
  %.val7.val.i = load ptr, ptr %12, align 8, !tbaa !24
  %13 = getelementptr inbounds nuw ptr, ptr %.val7.val.i, i64 %indvars.iv
  %14 = load ptr, ptr %13, align 8, !tbaa !26
  %15 = tail call ptr @Aig_And(ptr noundef %0, ptr noundef %.089, ptr noundef %14)
  %indvars.iv.next = add nuw nsw i64 %indvars.iv, 1
  %exitcond.not = icmp eq i64 %indvars.iv.next, %wide.trip.count
  br i1 %exitcond.not, label %._crit_edge, label %7, !llvm.loop !37

._crit_edge:                                      ; preds = %Aig_IthVar.exit, %2
  %.08.lcssa = phi ptr [ %.val, %2 ], [ %15, %Aig_IthVar.exit ]
  ret ptr %.08.lcssa
}